target datalayout = "e-m:e-p270:32:32-p271:32:32-p272:64:64-i64:64-i128:128-f80:128-n8:16:32:64-S128"
target triple = "x86_64-pc-linux-gnu"

%struct.ssl_connection_st = type { %struct.ssl_st, ptr, i32, ptr, ptr, ptr, i32, ptr, i32, i32, i32, i32, %struct.OSSL_TIME, %struct.OSSL_TIME, %struct.ossl_statem_st, i32, ptr, ptr, i64, i64, i64, %struct.ossl_quic_tls_callbacks_st, ptr, ptr, %struct.anon, ptr, ptr, ptr, i32, ptr, %struct.ssl_dane_st, ptr, ptr, ptr, ptr, i32, [64 x i8], [64 x i8], [64 x i8], [64 x i8], [64 x i8], [64 x i8], [64 x i8], [64 x i8], [64 x i8], [64 x i8], [64 x i8], [64 x i8], ptr, [64 x i8], i64, i32, i64, [32 x i8], ptr, ptr, ptr, i64, ptr, [32 x i8], i64, i32, ptr, ptr, i32, i32, ptr, ptr, ptr, ptr, ptr, i64, ptr, ptr, i64, i32, i32, i32, i64, i32, i32, i64, i64, i64, %struct.anon.1, ptr, i32, ptr, ptr, ptr, i32, ptr, ptr, ptr, i32, i32, i32, i32, ptr, i64, i32, ptr, %struct.srp_ctx_st, ptr, %struct.record_layer_st, ptr, ptr, ptr, ptr, i64, i32, i32, i32, i64, i64, i64, ptr, ptr, ptr, ptr, ptr, i64, ptr, i64, ptr, i64 }
%struct.ssl_st = type { i32, ptr, ptr, ptr, %struct.CRYPTO_REF_COUNT, ptr, %struct.crypto_ex_data_st }
%struct.CRYPTO_REF_COUNT = type { i32 }
%struct.crypto_ex_data_st = type { ptr, ptr }
%struct.OSSL_TIME = type { i64 }
%struct.ossl_statem_st = type { i32, i32, i32, i32, i32, i32, i32, i32, i32, i32, i32, i32, i32, ptr, ptr, ptr, i8 }
%struct.ossl_quic_tls_callbacks_st = type { ptr, ptr, ptr, ptr, ptr, ptr }
%struct.anon = type { i64, [32 x i8], [32 x i8], ptr, ptr, i32, i32, i32, i32, [2 x i8], i32, i32, i32, i32, %struct.anon.0, [64 x i8], i64, [64 x i8], i64, i32, i32, ptr, i64, ptr, i64, i32, i8, i8, i16, ptr, i16 }
%struct.anon.0 = type { [128 x i8], i64, [128 x i8], i64, i64, i32, ptr, ptr, [4 x ptr], [4 x i16], i64, i32, ptr, i64, ptr, i64, ptr, ptr, ptr, i32, i64, ptr, i32, ptr, i64, ptr, i64, ptr, i64, ptr, ptr, ptr, ptr, i64, i64, ptr, ptr, i32, i32, i32, i32 }
%struct.ssl_dane_st = type { ptr, ptr, ptr, ptr, ptr, i32, i32, i32, i64 }
%struct.anon.1 = type { [29 x i8], ptr, ptr, ptr, i32, ptr, i16, i32, %struct.anon.2, i32, i32, i64, ptr, i64, ptr, i64, ptr, i64, ptr, i64, ptr, i64, ptr, ptr, ptr, ptr, ptr, ptr, ptr, i64, ptr, i64, i32, i32, i32, i32, ptr, i64, i32, i8, i32, [4 x i32], i32, i8, i8, i8, i8 }
%struct.anon.2 = type { ptr, ptr, ptr, i64 }
%struct.srp_ctx_st = type { ptr, ptr, ptr, ptr, ptr, ptr, ptr, ptr, ptr, ptr, ptr, ptr, ptr, ptr, i32, i64 }
%struct.record_layer_st = type { ptr, ptr, ptr, ptr, ptr, ptr, ptr, ptr, i64, i32, i64, [4 x i8], i64, i64, i8, ptr, i32, ptr, ptr, ptr, i64, i64, i64, i64, [32 x %struct.tls_record_st] }
%struct.tls_record_st = type { ptr, i32, i8, ptr, ptr, i64, i64, i16, [8 x i8] }

; Function Attrs: nounwind uwtable
define i32 @SSL_export_keying_material_early(ptr noundef %0, ptr noundef %1, i64 noundef %2, ptr noundef %3, i64 noundef %4, ptr noundef %5, i64 noundef %6) #0 {
  %8 = alloca i32, align 4
  %9 = alloca ptr, align 8
  %10 = alloca ptr, align 8
  %11 = alloca i64, align 8
  %12 = alloca ptr, align 8
  %13 = alloca i64, align 8
  %14 = alloca ptr, align 8
  %15 = alloca i64, align 8
  %16 = alloca ptr, align 8
  %17 = alloca i32, align 4
  store ptr %0, ptr %9, align 8, !tbaa !16
  store ptr %1, ptr %10, align 8, !tbaa !8
  store i64 %2, ptr %11, align 8, !tbaa !10
  store ptr %3, ptr %12, align 8, !tbaa !8
  store i64 %4, ptr %13, align 8, !tbaa !10
  store ptr %5, ptr %14, align 8, !tbaa !8
  store i64 %6, ptr %15, align 8, !tbaa !10
  call void @llvm.lifetime.start.p0(i64 8, ptr %16) #9
  %18 = load ptr, ptr %9, align 8, !tbaa !16
  %19 = icmp eq ptr %18, null
  br i1 %19, label %20, label %21

20:                                               ; preds = %7
  br label %42

21:                                               ; preds = %7
  %22 = load ptr, ptr %9, align 8, !tbaa !16
  %23 = getelementptr inbounds nuw %struct.ssl_st, ptr %22, i32 0, i32 0
  %24 = load i32, ptr %23, align 8, !tbaa !29
  %25 = icmp eq i32 %24, 0
  br i1 %25, label %26, label %28

26:                                               ; preds = %21
  %27 = load ptr, ptr %9, align 8, !tbaa !16
  br label %40

28:                                               ; preds = %21
  %29 = load ptr, ptr %9, align 8, !tbaa !16
  %30 = getelementptr inbounds nuw %struct.ssl_st, ptr %29, i32 0, i32 0
  %31 = load i32, ptr %30, align 8, !tbaa !29
  %32 = and i32 %31, 128
  %33 = icmp ne i32 %32, 0
  br i1 %33, label %34, label %37

34:                                               ; preds = %28
  %35 = load ptr, ptr %9, align 8, !tbaa !16
  %36 = call ptr @ossl_quic_obj_get0_handshake_layer(ptr noundef %35)
  br label %38

37:                                               ; preds = %28
  br label %38

38:                                               ; preds = %37, %34
  %39 = phi ptr [ %36, %34 ], [ null, %37 ]
  br label %40

40:                                               ; preds = %38, %26
  %41 = phi ptr [ %27, %26 ], [ %39, %38 ]
  br label %42

42:                                               ; preds = %40, %20
  %43 = phi ptr [ null, %20 ], [ %41, %40 ]
  store ptr %43, ptr %16, align 8, !tbaa !3
  %44 = load ptr, ptr %16, align 8, !tbaa !3
  %45 = icmp eq ptr %44, null
  br i1 %45, label %46, label %47

46:                                               ; preds = %42
  store i32 -1, ptr %8, align 4
  store i32 1, ptr %17, align 4
  br label %62

47:                                               ; preds = %42
  %48 = load ptr, ptr %16, align 8, !tbaa !3
  %49 = getelementptr inbounds nuw %struct.ssl_connection_st, ptr %48, i32 0, i32 2
  %50 = load i32, ptr %49, align 8, !tbaa !90
  %51 = icmp ne i32 %50, 772
  br i1 %51, label %52, label %53

52:                                               ; preds = %47
  store i32 0, ptr %8, align 4
  store i32 1, ptr %17, align 4
  br label %62

53:                                               ; preds = %47
  %54 = load ptr, ptr %16, align 8, !tbaa !3
  %55 = load ptr, ptr %10, align 8, !tbaa !8
  %56 = load i64, ptr %11, align 8, !tbaa !10
  %57 = load ptr, ptr %12, align 8, !tbaa !8
  %58 = load i64, ptr %13, align 8, !tbaa !10
  %59 = load ptr, ptr %14, align 8, !tbaa !8
  %60 = load i64, ptr %15, align 8, !tbaa !10
  %61 = call i32 @tls13_export_keying_material_early(ptr noundef %54, ptr noundef %55, i64 noundef %56, ptr noundef %57, i64 noundef %58, ptr noundef %59, i64 noundef %60)
  store i32 %61, ptr %8, align 4
  store i32 1, ptr %17, align 4
  br label %62

62:                                               ; preds = %53, %52, %46
  call void @llvm.lifetime.end.p0(i64 8, ptr %16) #9
  %63 = load i32, ptr %8, align 4
  ret i32 %63
}