; Function Attrs: nounwind uwtable
define i32 @SSL_export_keying_material_early(ptr noundef %0, ptr noundef %1, i64 noundef %2, ptr noundef %3, i64 noundef %4, ptr noundef %5, i64 noundef %6) local_unnamed_addr #0 {
  %8 = icmp eq ptr %0, null
  br i1 %8, label %.thread, label %9

9:                                                ; preds = %7
  %10 = load i32, ptr %0, align 8, !tbaa !19
  %11 = icmp eq i32 %10, 0
  br i1 %11, label %.thread18, label %12

12:                                               ; preds = %9
  %13 = and i32 %10, 128
  %.not = icmp eq i32 %13, 0
  br i1 %.not, label %.thread, label %14

14:                                               ; preds = %12
  %15 = tail call ptr @ossl_quic_obj_get0_handshake_layer(ptr noundef nonnull %0) #20
  %16 = icmp eq ptr %15, null
  br i1 %16, label %.thread, label %.thread18

.thread18:                                        ; preds = %9, %14
  %17 = phi ptr [ %15, %14 ], [ %0, %9 ]
  %18 = getelementptr inbounds nuw i8, ptr %17, i64 72
  %19 = load i32, ptr %18, align 8, !tbaa !83
  %.not17 = icmp eq i32 %19, 772
  br i1 %.not17, label %20, label %.thread

20:                                               ; preds = %.thread18
  %21 = tail call i32 @tls13_export_keying_material_early(ptr noundef nonnull %17, ptr noundef %1, i64 noundef %2, ptr noundef %3, i64 noundef %4, ptr noundef %5, i64 noundef %6) #20
  br label %.thread

.thread:                                          ; preds = %12, %7, %.thread18, %14, %20
  %.0 = phi i32 [ %21, %20 ], [ -1, %14 ], [ 0, %.thread18 ], [ -1, %7 ], [ -1, %12 ]
  ret i32 %.0
}